; Function Attrs: mustprogress sspstrong uwtable
define void @_ZN3tbb6detail2r111tcm_adaptor29unregister_and_destroy_clientERNS1_9pm_clientE(ptr noundef nonnull readonly align 8 captures(none) dereferenceable(24) %0, ptr noundef nonnull align 8 dereferenceable(24) %1) unnamed_addr #3 align 2 personality ptr @__gxx_personality_v0 {
  %3 = alloca %"class.tbb::detail::d1::unique_scoped_lock", align 8
  call void @llvm.lifetime.start.p0(i64 8, ptr nonnull %3) #14
  %4 = getelementptr inbounds nuw i8, ptr %0, i64 16
  %5 = load ptr, ptr %4, align 8, !tbaa !59
  store ptr null, ptr %3, align 8, !tbaa !3
  call void @_ZN3tbb6detail2d118unique_scoped_lockINS1_5mutexEE7acquireERS3_(ptr noundef nonnull align 8 dereferenceable(8) %3, ptr noundef nonnull align 1 dereferenceable(1) %5)
  %6 = load ptr, ptr %1, align 8, !tbaa !41
  %7 = load ptr, ptr %6, align 8
  call void %7(ptr noundef nonnull align 8 dereferenceable(112) %1) #14
  %8 = load ptr, ptr %3, align 8, !tbaa !3
  %.not.i = icmp eq ptr %8, null
  br i1 %.not.i, label %_ZN3tbb6detail2d118unique_scoped_lockINS1_5mutexEED2Ev.exit, label %9

9:                                                ; preds = %2
  %10 = atomicrmw xchg ptr %8, i8 0 seq_cst, align 1
  invoke void @_ZN3tbb6detail2r121notify_by_address_oneEPv(ptr noundef nonnull align 1 dereferenceable(1) %8)
          to label %_ZN3tbb6detail2d118unique_scoped_lockINS1_5mutexEED2Ev.exit unwind label %11

11:                                               ; preds = %9
  %12 = landingpad { ptr, i32 }
          catch ptr null
  %13 = extractvalue { ptr, i32 } %12, 0
  call void @__clang_call_terminate(ptr %13) #17
  unreachable

_ZN3tbb6detail2d118unique_scoped_lockINS1_5mutexEED2Ev.exit: ; preds = %9, %2
  call void @llvm.lifetime.end.p0(i64 8, ptr nonnull %3) #14
  call void @_ZN3tbb6detail2r124cache_aligned_deallocateEPv(ptr noundef nonnull %1)
  ret void
}